; Function Attrs: mustprogress uwtable
define hidden void @_ZNK5osgeo4proj5datum29DynamicVerticalReferenceFrame12_exportToWKTEPNS0_2io12WKTFormatterE(ptr noundef nonnull align 8 dereferenceable(80) %0, ptr noundef nonnull %1) unnamed_addr #0 align 2 {
  %3 = tail call noundef i32 @_ZNK5osgeo4proj2io12WKTFormatter7versionEv(ptr noundef nonnull align 8 dereferenceable(8) %1)
  %4 = icmp eq i32 %3, 1
  br i1 %4, label %5, label %18

5:                                                ; preds = %2
  %6 = tail call noundef zeroext i1 @_ZNK5osgeo4proj2io12WKTFormatter15use2019KeywordsEv(ptr noundef nonnull align 8 dereferenceable(8) %1)
  br i1 %6, label %7, label %18

7:                                                ; preds = %5
  tail call void @_ZN5osgeo4proj2io12WKTFormatter9startNodeERKNSt7__cxx1112basic_stringIcSt11char_traitsIcESaIcEEEb(ptr noundef nonnull align 8 dereferenceable(8) %1, ptr noundef nonnull align 8 dereferenceable(32) @_ZN5osgeo4proj2io12WKTConstants7DYNAMICB5cxx11E, i1 noundef zeroext false)
  tail call void @_ZN5osgeo4proj2io12WKTFormatter9startNodeERKNSt7__cxx1112basic_stringIcSt11char_traitsIcESaIcEEEb(ptr noundef nonnull align 8 dereferenceable(8) %1, ptr noundef nonnull align 8 dereferenceable(32) @_ZN5osgeo4proj2io12WKTConstants10FRAMEEPOCHB5cxx11E, i1 noundef zeroext false)
  %8 = getelementptr inbounds i8, ptr %0, i64 72
  %9 = load ptr, ptr %8, align 8
  %10 = tail call noundef double @_ZNK5osgeo4proj6common7Measure13convertToUnitERKNS1_13UnitOfMeasureE(ptr noundef nonnull align 8 dereferenceable(24) %9, ptr noundef nonnull align 8 dereferenceable(24) @_ZN5osgeo4proj6common13UnitOfMeasure4YEARE) #25
  tail call void @_ZN5osgeo4proj2io12WKTFormatter3addEdi(ptr noundef nonnull align 8 dereferenceable(8) %1, double noundef %10, i32 noundef 15)
  tail call void @_ZN5osgeo4proj2io12WKTFormatter7endNodeEv(ptr noundef nonnull align 8 dereferenceable(8) %1)
  %11 = load ptr, ptr %8, align 8
  %12 = getelementptr inbounds i8, ptr %11, i64 32
  %13 = tail call noundef zeroext i1 @_ZNKSt7__cxx1112basic_stringIcSt11char_traitsIcESaIcEE5emptyEv(ptr noundef nonnull align 8 dereferenceable(32) %12) #26
  br i1 %13, label %17, label %14

14:                                               ; preds = %7
  tail call void @_ZN5osgeo4proj2io12WKTFormatter9startNodeERKNSt7__cxx1112basic_stringIcSt11char_traitsIcESaIcEEEb(ptr noundef nonnull align 8 dereferenceable(8) %1, ptr noundef nonnull align 8 dereferenceable(32) @_ZN5osgeo4proj2io12WKTConstants5MODELB5cxx11E, i1 noundef zeroext false)
  %15 = load ptr, ptr %8, align 8
  %16 = getelementptr inbounds i8, ptr %15, i64 32
  tail call void @_ZN5osgeo4proj2io12WKTFormatter15addQuotedStringERKNSt7__cxx1112basic_stringIcSt11char_traitsIcESaIcEEE(ptr noundef nonnull align 8 dereferenceable(8) %1, ptr noundef nonnull align 8 dereferenceable(32) %16)
  tail call void @_ZN5osgeo4proj2io12WKTFormatter7endNodeEv(ptr noundef nonnull align 8 dereferenceable(8) %1)
  br label %17

17:                                               ; preds = %14, %7
  tail call void @_ZN5osgeo4proj2io12WKTFormatter7endNodeEv(ptr noundef nonnull align 8 dereferenceable(8) %1)
  br label %18

18:                                               ; preds = %17, %5, %2
  tail call void @_ZNK5osgeo4proj5datum22VerticalReferenceFrame12_exportToWKTEPNS0_2io12WKTFormatterE(ptr noundef nonnull align 8 dereferenceable(72) %0, ptr noundef nonnull %1)
  ret void
}